target datalayout = "e-m:e-p270:32:32-p271:32:32-p272:64:64-i64:64-i128:128-f80:128-n8:16:32:64-S128"
target triple = "x86_64-pc-linux-gnu"

%struct.ident_t = type { i32, i32, i32, i32, ptr }
%"class.LightGBM::Metric" = type { ptr }
%"class.std::vector" = type { %"struct.std::_Vector_base" }
%"struct.std::_Vector_base" = type { %"struct.std::_Vector_base<std::__cxx11::basic_string<char>, std::allocator<std::__cxx11::basic_string<char>>>::_Vector_impl" }
%"struct.std::_Vector_base<std::__cxx11::basic_string<char>, std::allocator<std::__cxx11::basic_string<char>>>::_Vector_impl" = type { %"struct.std::_Vector_base<std::__cxx11::basic_string<char>, std::allocator<std::__cxx11::basic_string<char>>>::_Vector_impl_data" }
%"struct.std::_Vector_base<std::__cxx11::basic_string<char>, std::allocator<std::__cxx11::basic_string<char>>>::_Vector_impl_data" = type { ptr, ptr, ptr }
%"class.LightGBM::BinaryMetric" = type { %"class.LightGBM::Metric", i32, ptr, ptr, double, %"class.std::vector" }

@1 = private unnamed_addr constant %struct.ident_t { i32 0, i32 514, i32 0, i32 22, ptr @0 }, align 8
@.gomp_critical_user_.reduction.var = common global [8 x i32] zeroinitializer, align 8
@2 = private unnamed_addr constant %struct.ident_t { i32 0, i32 18, i32 0, i32 22, ptr @0 }, align 8

; Function Attrs: inlinehint mustprogress nounwind uwtable
define linkonce_odr noundef float @_ZSt3logf(float noundef %0) #5 comdat {
  %2 = alloca float, align 4
  store float %0, ptr %2, align 4, !tbaa !130
  %3 = load float, ptr %2, align 4, !tbaa !130
  %4 = call float @logf(float noundef %3) #3, !tbaa !124
  ret float %4
}

; Function Attrs: inlinehint mustprogress uwtable
define linkonce_odr noundef double @_ZN8LightGBM19BinaryLoglossMetric11LossOnPointEfd(float noundef %0, double noundef %1) #12 comdat align 2 {
  %3 = alloca double, align 8
  %4 = alloca float, align 4
  %5 = alloca double, align 8
  store float %0, ptr %4, align 4, !tbaa !130
  store double %1, ptr %5, align 8, !tbaa !138
  %6 = load float, ptr %4, align 4, !tbaa !130
  %7 = fcmp ole float %6, 0.000000e+00
  br i1 %7, label %8, label %18

8:                                                ; preds = %2
  %9 = load double, ptr %5, align 8, !tbaa !138
  %10 = fsub double 1.000000e+00, %9
  %11 = fcmp ogt double %10, 0x3CD203AFA0000000
  br i1 %11, label %12, label %17

12:                                               ; preds = %8
  %13 = load double, ptr %5, align 8, !tbaa !138
  %14 = fsub double 1.000000e+00, %13
  %15 = call double @log(double noundef %14) #3, !tbaa !124
  %16 = fneg double %15
  store double %16, ptr %3, align 8
  br label %30

17:                                               ; preds = %8
  br label %26

18:                                               ; preds = %2
  %19 = load double, ptr %5, align 8, !tbaa !138
  %20 = fcmp ogt double %19, 0x3CD203AFA0000000
  br i1 %20, label %21, label %25

21:                                               ; preds = %18
  %22 = load double, ptr %5, align 8, !tbaa !138
  %23 = call double @log(double noundef %22) #3, !tbaa !124
  %24 = fneg double %23
  store double %24, ptr %3, align 8
  br label %30

25:                                               ; preds = %18
  br label %26

26:                                               ; preds = %25, %17
  %27 = call noundef float @_ZSt3logf(float noundef 0x3CD203AFA0000000)
  %28 = fneg float %27
  %29 = fpext float %28 to double
  store double %29, ptr %3, align 8
  br label %30

30:                                               ; preds = %26, %21, %12
  %31 = load double, ptr %3, align 8
  ret double %31
}

; Function Attrs: alwaysinline norecurse nounwind uwtable
define internal void @_ZNK8LightGBM12BinaryMetricINS_19BinaryLoglossMetricEE4EvalEPKdPKNS_17ObjectiveFunctionE.omp_outlined.48(ptr noalias noundef %0, ptr noalias noundef %1, ptr noundef %2, ptr noundef nonnull align 8 dereferenceable(8) %3, ptr noundef nonnull align 8 dereferenceable(8) %4, ptr noundef nonnull align 8 dereferenceable(8) %5) #17 personality ptr @__gxx_personality_v0 {
  %7 = alloca ptr, align 8
  %8 = alloca ptr, align 8
  %9 = alloca ptr, align 8
  %10 = alloca ptr, align 8
  %11 = alloca ptr, align 8
  %12 = alloca ptr, align 8
  %13 = alloca i32, align 4
  %14 = alloca i32, align 4
  %15 = alloca i32, align 4
  %16 = alloca i32, align 4
  %17 = alloca i32, align 4
  %18 = alloca i32, align 4
  %19 = alloca i32, align 4
  %20 = alloca i32, align 4
  %21 = alloca double, align 8
  %22 = alloca i32, align 4
  %23 = alloca double, align 8
  %24 = alloca [1 x ptr], align 8
  store ptr %0, ptr %7, align 8, !tbaa !234
  store ptr %1, ptr %8, align 8, !tbaa !234
  store ptr %2, ptr %9, align 8, !tbaa !364
  store ptr %3, ptr %10, align 8, !tbaa !305
  store ptr %4, ptr %11, align 8, !tbaa !222
  store ptr %5, ptr %12, align 8, !tbaa !135
  %25 = load ptr, ptr %9, align 8, !tbaa !364
  %26 = load ptr, ptr %10, align 8, !tbaa !305
  %27 = load ptr, ptr %11, align 8, !tbaa !222
  %28 = load ptr, ptr %12, align 8, !tbaa !135
  call void @llvm.lifetime.start.p0(i64 4, ptr %13) #3
  call void @llvm.lifetime.start.p0(i64 4, ptr %14) #3
  %29 = getelementptr inbounds nuw %"class.LightGBM::BinaryMetric", ptr %25, i32 0, i32 1
  %30 = load i32, ptr %29, align 8, !tbaa !366
  store i32 %30, ptr %14, align 4, !tbaa !124
  call void @llvm.lifetime.start.p0(i64 4, ptr %15) #3
  %31 = load i32, ptr %14, align 4, !tbaa !124
  %32 = sub nsw i32 %31, 0
  %33 = sdiv i32 %32, 1
  %34 = sub nsw i32 %33, 1
  store i32 %34, ptr %15, align 4, !tbaa !124
  call void @llvm.lifetime.start.p0(i64 4, ptr %16) #3
  store i32 0, ptr %16, align 4, !tbaa !124
  call void @llvm.lifetime.end.p0(i64 4, ptr %16) #3
  %35 = load i32, ptr %14, align 4, !tbaa !124
  %36 = icmp slt i32 0, %35
  br i1 %36, label %37, label %100

37:                                               ; preds = %6
  call void @llvm.lifetime.start.p0(i64 4, ptr %17) #3
  store i32 0, ptr %17, align 4, !tbaa !124
  call void @llvm.lifetime.start.p0(i64 4, ptr %18) #3
  %38 = load i32, ptr %15, align 4, !tbaa !124
  store i32 %38, ptr %18, align 4, !tbaa !124
  call void @llvm.lifetime.start.p0(i64 4, ptr %19) #3
  store i32 1, ptr %19, align 4, !tbaa !124
  call void @llvm.lifetime.start.p0(i64 4, ptr %20) #3
  store i32 0, ptr %20, align 4, !tbaa !124
  call void @llvm.lifetime.start.p0(i64 8, ptr %21) #3
  store double 0.000000e+00, ptr %21, align 8, !tbaa !138
  call void @llvm.lifetime.start.p0(i64 4, ptr %22) #3
  %39 = load ptr, ptr %7, align 8
  %40 = load i32, ptr %39, align 4, !tbaa !124
  call void @__kmpc_for_static_init_4(ptr @1, i32 %40, i32 34, ptr %20, ptr %17, ptr %18, ptr %19, i32 1, i32 1)
  %41 = load i32, ptr %18, align 4, !tbaa !124
  %42 = load i32, ptr %15, align 4, !tbaa !124
  %43 = icmp sgt i32 %41, %42
  br i1 %43, label %44, label %46

44:                                               ; preds = %37
  %45 = load i32, ptr %15, align 4, !tbaa !124
  br label %48

46:                                               ; preds = %37
  %47 = load i32, ptr %18, align 4, !tbaa !124
  br label %48

48:                                               ; preds = %46, %44
  %49 = phi i32 [ %45, %44 ], [ %47, %46 ]
  store i32 %49, ptr %18, align 4, !tbaa !124
  %50 = load i32, ptr %17, align 4, !tbaa !124
  store i32 %50, ptr %13, align 4, !tbaa !124
  br label %51

51:                                               ; preds = %81, %48
  %52 = load i32, ptr %13, align 4, !tbaa !124
  %53 = load i32, ptr %18, align 4, !tbaa !124
  %54 = icmp sle i32 %52, %53
  br i1 %54, label %56, label %55

55:                                               ; preds = %51
  br label %84

56:                                               ; preds = %51
  %57 = load i32, ptr %13, align 4, !tbaa !124
  %58 = mul nsw i32 %57, 1
  %59 = add nsw i32 0, %58
  store i32 %59, ptr %22, align 4, !tbaa !124
  call void @llvm.lifetime.start.p0(i64 8, ptr %23) #3
  store double 0.000000e+00, ptr %23, align 8, !tbaa !138
  %60 = load ptr, ptr %26, align 8, !tbaa !136
  %61 = load ptr, ptr %27, align 8, !tbaa !135
  %62 = load i32, ptr %22, align 4, !tbaa !124
  %63 = sext i32 %62 to i64
  %64 = getelementptr inbounds double, ptr %61, i64 %63
  %65 = load ptr, ptr %60, align 8, !tbaa !19
  %66 = getelementptr inbounds ptr, ptr %65, i64 17
  %67 = load ptr, ptr %66, align 8
  invoke void %67(ptr noundef nonnull align 8 dereferenceable(8) %60, ptr noundef %64, ptr noundef %23)
          to label %68 unwind label %101

68:                                               ; preds = %56
  %69 = getelementptr inbounds nuw %"class.LightGBM::BinaryMetric", ptr %25, i32 0, i32 2
  %70 = load ptr, ptr %69, align 8, !tbaa !368
  %71 = load i32, ptr %22, align 4, !tbaa !124
  %72 = sext i32 %71 to i64
  %73 = getelementptr inbounds float, ptr %70, i64 %72
  %74 = load float, ptr %73, align 4, !tbaa !130
  %75 = load double, ptr %23, align 8, !tbaa !138
  %76 = invoke noundef double @_ZN8LightGBM19BinaryLoglossMetric11LossOnPointEfd(float noundef %74, double noundef %75)
          to label %77 unwind label %101

77:                                               ; preds = %68
  %78 = load double, ptr %21, align 8, !tbaa !138
  %79 = fadd double %78, %76
  store double %79, ptr %21, align 8, !tbaa !138
  call void @llvm.lifetime.end.p0(i64 8, ptr %23) #3
  br label %80

80:                                               ; preds = %77
  br label %81

81:                                               ; preds = %80
  %82 = load i32, ptr %13, align 4, !tbaa !124
  %83 = add nsw i32 %82, 1
  store i32 %83, ptr %13, align 4, !tbaa !124
  br label %51

84:                                               ; preds = %55
  br label %85

85:                                               ; preds = %84
  %86 = load ptr, ptr %7, align 8
  %87 = load i32, ptr %86, align 4, !tbaa !124
  call void @__kmpc_for_static_fini(ptr @1, i32 %87)
  %88 = getelementptr inbounds [1 x ptr], ptr %24, i64 0, i64 0
  store ptr %21, ptr %88, align 8
  %89 = load ptr, ptr %7, align 8
  %90 = load i32, ptr %89, align 4, !tbaa !124
  %91 = call i32 @__kmpc_reduce_nowait(ptr @2, i32 %90, i32 1, i64 8, ptr %24, ptr @_ZNK8LightGBM12BinaryMetricINS_19BinaryLoglossMetricEE4EvalEPKdPKNS_17ObjectiveFunctionE.omp_outlined.48.omp.reduction.reduction_func, ptr @.gomp_critical_user_.reduction.var)
  switch i32 %91, label %99 [
    i32 1, label %92
    i32 2, label %96
  ]

92:                                               ; preds = %85
  %93 = load double, ptr %28, align 8, !tbaa !138
  %94 = load double, ptr %21, align 8, !tbaa !138
  %95 = fadd double %93, %94
  store double %95, ptr %28, align 8, !tbaa !138
  call void @__kmpc_end_reduce_nowait(ptr @2, i32 %90, ptr @.gomp_critical_user_.reduction.var)
  br label %99

96:                                               ; preds = %85
  %97 = load double, ptr %21, align 8, !tbaa !138
  %98 = atomicrmw fadd ptr %28, double %97 monotonic, align 8
  br label %99

99:                                               ; preds = %96, %92, %85
  call void @llvm.lifetime.end.p0(i64 4, ptr %22) #3
  call void @llvm.lifetime.end.p0(i64 8, ptr %21) #3
  call void @llvm.lifetime.end.p0(i64 4, ptr %20) #3
  call void @llvm.lifetime.end.p0(i64 4, ptr %19) #3
  call void @llvm.lifetime.end.p0(i64 4, ptr %18) #3
  call void @llvm.lifetime.end.p0(i64 4, ptr %17) #3
  br label %100

100:                                              ; preds = %99, %6
  call void @llvm.lifetime.end.p0(i64 4, ptr %15) #3
  call void @llvm.lifetime.end.p0(i64 4, ptr %14) #3
  call void @llvm.lifetime.end.p0(i64 4, ptr %13) #3
  ret void

101:                                              ; preds = %68, %56
  %102 = landingpad { ptr, i32 }
          catch ptr null
  %103 = extractvalue { ptr, i32 } %102, 0
  call void @__clang_call_terminate(ptr %103) #27
  unreachable
}