; Function Attrs: alwaysinline norecurse nounwind uwtable
define internal void @_ZNK8LightGBM12BinaryMetricINS_19BinaryLoglossMetricEE4EvalEPKdPKNS_17ObjectiveFunctionE.omp_outlined.48(ptr noalias noundef readonly captures(none) %0, ptr noalias readnone captures(none) %1, ptr noundef readonly captures(none) %2, ptr noundef nonnull readonly align 8 captures(none) dereferenceable(8) %3, ptr noundef nonnull readonly align 8 captures(none) dereferenceable(8) %4, ptr noundef nonnull align 8 captures(none) dereferenceable(8) %5) #15 personality ptr @__gxx_personality_v0 {
  %7 = alloca i32, align 4
  %8 = alloca i32, align 4
  %9 = alloca i32, align 4
  %10 = alloca i32, align 4
  %11 = alloca double, align 8
  %12 = alloca double, align 8
  %13 = alloca [1 x ptr], align 8
  %14 = getelementptr inbounds nuw i8, ptr %2, i64 8
  %15 = load i32, ptr %14, align 8, !tbaa !168
  %16 = icmp sgt i32 %15, 0
  br i1 %16, label %17, label %62

17:                                               ; preds = %6
  %18 = add nsw i32 %15, -1
  call void @llvm.lifetime.start.p0(i64 4, ptr nonnull %7) #16
  store i32 0, ptr %7, align 4, !tbaa !127
  call void @llvm.lifetime.start.p0(i64 4, ptr nonnull %8) #16
  store i32 %18, ptr %8, align 4, !tbaa !127
  call void @llvm.lifetime.start.p0(i64 4, ptr nonnull %9) #16
  store i32 1, ptr %9, align 4, !tbaa !127
  call void @llvm.lifetime.start.p0(i64 4, ptr nonnull %10) #16
  store i32 0, ptr %10, align 4, !tbaa !127
  call void @llvm.lifetime.start.p0(i64 8, ptr nonnull %11) #16
  store double 0.000000e+00, ptr %11, align 8, !tbaa !84
  %19 = load i32, ptr %0, align 4, !tbaa !127
  call void @__kmpc_for_static_init_4(ptr nonnull @1, i32 %19, i32 34, ptr nonnull %10, ptr nonnull %7, ptr nonnull %8, ptr nonnull %9, i32 1, i32 1)
  %20 = load i32, ptr %8, align 4, !tbaa !127
  %21 = call i32 @llvm.smin.i32(i32 %20, i32 %18)
  store i32 %21, ptr %8, align 4, !tbaa !127
  %22 = load i32, ptr %7, align 4, !tbaa !127
  %.not16 = icmp sgt i32 %22, %21
  br i1 %.not16, label %._crit_edge, label %.lr.ph

.lr.ph:                                           ; preds = %17
  %23 = getelementptr inbounds nuw i8, ptr %2, i64 16
  %24 = sext i32 %22 to i64
  br label %25

25:                                               ; preds = %.lr.ph, %_ZN8LightGBM19BinaryLoglossMetric11LossOnPointEfd.exit
  %26 = phi double [ 0.000000e+00, %.lr.ph ], [ %50, %_ZN8LightGBM19BinaryLoglossMetric11LossOnPointEfd.exit ]
  %indvars.iv = phi i64 [ %24, %.lr.ph ], [ %indvars.iv.next, %_ZN8LightGBM19BinaryLoglossMetric11LossOnPointEfd.exit ]
  call void @llvm.lifetime.start.p0(i64 8, ptr nonnull %12) #16
  store double 0.000000e+00, ptr %12, align 8, !tbaa !84
  %27 = load ptr, ptr %3, align 8, !tbaa !82
  %28 = load ptr, ptr %4, align 8, !tbaa !81
  %29 = getelementptr inbounds double, ptr %28, i64 %indvars.iv
  %30 = load ptr, ptr %27, align 8, !tbaa !15
  %31 = getelementptr inbounds nuw i8, ptr %30, i64 136
  %32 = load ptr, ptr %31, align 8
  invoke void %32(ptr noundef nonnull align 8 dereferenceable(8) %27, ptr noundef %29, ptr noundef nonnull %12)
          to label %33 unwind label %63

33:                                               ; preds = %25
  %34 = load ptr, ptr %23, align 8, !tbaa !170
  %35 = getelementptr inbounds float, ptr %34, i64 %indvars.iv
  %36 = load float, ptr %35, align 4, !tbaa !78
  %37 = load double, ptr %12, align 8, !tbaa !84
  %38 = fcmp ugt float %36, 0.000000e+00
  br i1 %38, label %45, label %39

39:                                               ; preds = %33
  %40 = fsub double 1.000000e+00, %37
  %41 = fcmp ogt double %40, 0x3CD203AFA0000000
  br i1 %41, label %42, label %_ZN8LightGBM19BinaryLoglossMetric11LossOnPointEfd.exit

42:                                               ; preds = %39
  %43 = call double @llvm.log.f64(double %40), !tbaa !127
  %44 = fneg double %43
  br label %_ZN8LightGBM19BinaryLoglossMetric11LossOnPointEfd.exit

45:                                               ; preds = %33
  %46 = fcmp ogt double %37, 0x3CD203AFA0000000
  br i1 %46, label %47, label %_ZN8LightGBM19BinaryLoglossMetric11LossOnPointEfd.exit

47:                                               ; preds = %45
  %48 = call double @llvm.log.f64(double %37), !tbaa !127
  %49 = fneg double %48
  br label %_ZN8LightGBM19BinaryLoglossMetric11LossOnPointEfd.exit

_ZN8LightGBM19BinaryLoglossMetric11LossOnPointEfd.exit: ; preds = %47, %45, %42, %39
  %.0.i = phi double [ %44, %42 ], [ %49, %47 ], [ 0x404144F6A0000000, %45 ], [ 0x404144F6A0000000, %39 ]
  %50 = fadd double %.0.i, %26
  store double %50, ptr %11, align 8, !tbaa !84
  call void @llvm.lifetime.end.p0(i64 8, ptr nonnull %12) #16
  %indvars.iv.next = add nsw i64 %indvars.iv, 1
  %51 = load i32, ptr %8, align 4, !tbaa !127
  %52 = sext i32 %51 to i64
  %.not.not = icmp slt i64 %indvars.iv, %52
  br i1 %.not.not, label %25, label %._crit_edge

._crit_edge:                                      ; preds = %_ZN8LightGBM19BinaryLoglossMetric11LossOnPointEfd.exit, %17
  call void @__kmpc_for_static_fini(ptr nonnull @1, i32 %19)
  store ptr %11, ptr %13, align 8
  %53 = call i32 @__kmpc_reduce_nowait(ptr nonnull @2, i32 %19, i32 1, i64 8, ptr nonnull %13, ptr nonnull @_ZNK8LightGBM12BinaryMetricINS_19BinaryLoglossMetricEE4EvalEPKdPKNS_17ObjectiveFunctionE.omp_outlined.48.omp.reduction.reduction_func, ptr nonnull @.gomp_critical_user_.reduction.var)
  switch i32 %53, label %61 [
    i32 1, label %54
    i32 2, label %58
  ]

54:                                               ; preds = %._crit_edge
  %55 = load double, ptr %5, align 8, !tbaa !84
  %56 = load double, ptr %11, align 8, !tbaa !84
  %57 = fadd double %55, %56
  store double %57, ptr %5, align 8, !tbaa !84
  call void @__kmpc_end_reduce_nowait(ptr nonnull @2, i32 %19, ptr nonnull @.gomp_critical_user_.reduction.var)
  br label %61

58:                                               ; preds = %._crit_edge
  %59 = load double, ptr %11, align 8, !tbaa !84
  %60 = atomicrmw fadd ptr %5, double %59 monotonic, align 8
  br label %61

61:                                               ; preds = %58, %54, %._crit_edge
  call void @llvm.lifetime.end.p0(i64 8, ptr nonnull %11) #16
  call void @llvm.lifetime.end.p0(i64 4, ptr nonnull %10) #16
  call void @llvm.lifetime.end.p0(i64 4, ptr nonnull %9) #16
  call void @llvm.lifetime.end.p0(i64 4, ptr nonnull %8) #16
  call void @llvm.lifetime.end.p0(i64 4, ptr nonnull %7) #16
  br label %62

62:                                               ; preds = %61, %6
  ret void

63:                                               ; preds = %25
  %64 = landingpad { ptr, i32 }
          catch ptr null
  %65 = extractvalue { ptr, i32 } %64, 0
  call void @__clang_call_terminate(ptr %65) #35
  unreachable
}